; ModuleID = '42/1533.c'
source_filename = "42/1533.c"
target datalayout = "e-m:e-p270:32:32-p271:32:32-p272:64:64-i64:64-f80:128-n8:16:32:64-S128"
target triple = "x86_64-pc-linux-gnu"

@.str = private unnamed_addr constant [3 x i8] c"%d\00", align 1
@.str.1 = private unnamed_addr constant [4 x i8] c"%d \00", align 1

; Function Attrs: noinline nounwind uwtable
define dso_local i32 @main() #0 {
  %1 = alloca i32, align 4
  %2 = alloca i32, align 4
  %3 = alloca [100000 x i32], align 16
  %4 = alloca i32, align 4
  %5 = alloca i32, align 4
  %6 = alloca i32, align 4
  %7 = alloca i32, align 4
  %8 = alloca i32, align 4
  store i32 0, i32* %1, align 4
  store i32 0, i32* %8, align 4
  %9 = call i32 (i8*, ...) @__isoc99_scanf(i8* getelementptr inbounds ([3 x i8], [3 x i8]* @.str, i64 0, i64 0), i32* %2)
  store i32 0, i32* %4, align 4
  br label %10

10:                                               ; preds = %19, %0
  %11 = load i32, i32* %4, align 4
  %12 = load i32, i32* %2, align 4
  %13 = icmp slt i32 %11, %12
  br i1 %13, label %14, label %22

14:                                               ; preds = %10
  %15 = load i32, i32* %4, align 4
  %16 = sext i32 %15 to i64
  %17 = getelementptr inbounds [100000 x i32], [100000 x i32]* %3, i64 0, i64 %16
  %18 = call i32 (i8*, ...) @__isoc99_scanf(i8* getelementptr inbounds ([3 x i8], [3 x i8]* @.str, i64 0, i64 0), i32* %17)
  br label %19

19:                                               ; preds = %14
  %20 = load i32, i32* %4, align 4
  %21 = add nsw i32 %20, 1
  store i32 %21, i32* %4, align 4
  br label %10

22:                                               ; preds = %10
  %23 = call i32 (i8*, ...) @__isoc99_scanf(i8* getelementptr inbounds ([3 x i8], [3 x i8]* @.str, i64 0, i64 0), i32* %5)
  store i32 0, i32* %4, align 4
  store i32 0, i32* %6, align 4
  br label %24

24:                                               ; preds = %62, %22
  %25 = load i32, i32* %6, align 4
  %26 = load i32, i32* %2, align 4
  %27 = icmp slt i32 %25, %26
  br i1 %27, label %28, label %65

28:                                               ; preds = %24
  %29 = load i32, i32* %4, align 4
  %30 = sext i32 %29 to i64
  %31 = getelementptr inbounds [100000 x i32], [100000 x i32]* %3, i64 0, i64 %30
  %32 = load i32, i32* %31, align 4
  %33 = load i32, i32* %5, align 4
  %34 = icmp eq i32 %32, %33
  br i1 %34, label %35, label %59

35:                                               ; preds = %28
  %36 = load i32, i32* %4, align 4
  store i32 %36, i32* %7, align 4
  br label %37

37:                                               ; preds = %51, %35
  %38 = load i32, i32* %7, align 4
  %39 = load i32, i32* %2, align 4
  %40 = sub nsw i32 %39, 1
  %41 = icmp slt i32 %38, %40
  br i1 %41, label %42, label %54

42:                                               ; preds = %37
  %43 = load i32, i32* %7, align 4
  %44 = add nsw i32 %43, 1
  %45 = sext i32 %44 to i64
  %46 = getelementptr inbounds [100000 x i32], [100000 x i32]* %3, i64 0, i64 %45
  %47 = load i32, i32* %46, align 4
  %48 = load i32, i32* %7, align 4
  %49 = sext i32 %48 to i64
  %50 = getelementptr inbounds [100000 x i32], [100000 x i32]* %3, i64 0, i64 %49
  store i32 %47, i32* %50, align 4
  br label %51

51:                                               ; preds = %42
  %52 = load i32, i32* %7, align 4
  %53 = add nsw i32 %52, 1
  store i32 %53, i32* %7, align 4
  br label %37

54:                                               ; preds = %37
  %55 = load i32, i32* %4, align 4
  %56 = sub nsw i32 %55, 1
  store i32 %56, i32* %4, align 4
  %57 = load i32, i32* %8, align 4
  %58 = add nsw i32 %57, 1
  store i32 %58, i32* %8, align 4
  br label %59

59:                                               ; preds = %54, %28
  %60 = load i32, i32* %4, align 4
  %61 = add nsw i32 %60, 1
  store i32 %61, i32* %4, align 4
  br label %62

62:                                               ; preds = %59
  %63 = load i32, i32* %6, align 4
  %64 = add nsw i32 %63, 1
  store i32 %64, i32* %6, align 4
  br label %24

65:                                               ; preds = %24
  store i32 0, i32* %4, align 4
  br label %66

66:                                               ; preds = %99, %65
  %67 = load i32, i32* %4, align 4
  %68 = load i32, i32* %2, align 4
  %69 = load i32, i32* %8, align 4
  %70 = sub nsw i32 %68, %69
  %71 = icmp slt i32 %67, %70
  br i1 %71, label %72, label %102

72:                                               ; preds = %66
  %73 = load i32, i32* %4, align 4
  %74 = load i32, i32* %2, align 4
  %75 = load i32, i32* %8, align 4
  %76 = sub nsw i32 %74, %75
  %77 = sub nsw i32 %76, 1
  %78 = icmp slt i32 %73, %77
  br i1 %78, label %79, label %85

79:                                               ; preds = %72
  %80 = load i32, i32* %4, align 4
  %81 = sext i32 %80 to i64
  %82 = getelementptr inbounds [100000 x i32], [100000 x i32]* %3, i64 0, i64 %81
  %83 = load i32, i32* %82, align 4
  %84 = call i32 (i8*, ...) @printf(i8* getelementptr inbounds ([4 x i8], [4 x i8]* @.str.1, i64 0, i64 0), i32 %83)
  br label %85

85:                                               ; preds = %79, %72
  %86 = load i32, i32* %4, align 4
  %87 = load i32, i32* %2, align 4
  %88 = load i32, i32* %8, align 4
  %89 = sub nsw i32 %87, %88
  %90 = sub nsw i32 %89, 1
  %91 = icmp eq i32 %86, %90
  br i1 %91, label %92, label %98

92:                                               ; preds = %85
  %93 = load i32, i32* %4, align 4
  %94 = sext i32 %93 to i64
  %95 = getelementptr inbounds [100000 x i32], [100000 x i32]* %3, i64 0, i64 %94
  %96 = load i32, i32* %95, align 4
  %97 = call i32 (i8*, ...) @printf(i8* getelementptr inbounds ([3 x i8], [3 x i8]* @.str, i64 0, i64 0), i32 %96)
  br label %98

98:                                               ; preds = %92, %85
  br label %99

99:                                               ; preds = %98
  %100 = load i32, i32* %4, align 4
  %101 = add nsw i32 %100, 1
  store i32 %101, i32* %4, align 4
  br label %66

102:                                              ; preds = %66
  %103 = call i32 (i8*, ...) @__isoc99_scanf(i8* getelementptr inbounds ([3 x i8], [3 x i8]* @.str, i64 0, i64 0), i32 1)
  ret i32 0
}

declare dso_local i32 @__isoc99_scanf(i8*, ...) #1

declare dso_local i32 @printf(i8*, ...) #1


!llvm.module.flags = !{!0}
!llvm.ident = !{!1}

!0 = !{i32 1, !"wchar_size", i32 4}
!1 = !{!"clang version 10.0.0-4ubuntu1 "}
